; Function Attrs: nofree nounwind uwtable
define range(i64 -554050779136, 554050782975) i64 @tj3JPEGBufSize(i32 noundef %0, i32 noundef %1, i32 noundef %2) local_unnamed_addr #6 {
  %4 = icmp slt i32 %0, 1
  %5 = icmp slt i32 %1, 1
  %or.cond = or i1 %4, %5
  %6 = add i32 %2, -7
  %7 = icmp ult i32 %6, -8
  %or.cond5 = or i1 %or.cond, %7
  br i1 %or.cond5, label %8, label %11

8:                                                ; preds = %3
  %9 = tail call align 16 ptr @llvm.threadlocal.address.p0(ptr align 16 @errStr)
  %10 = tail call i32 (ptr, i64, ptr, ...) @snprintf(ptr noundef nonnull dereferenceable(1) %9, i64 noundef 200, ptr noundef nonnull @.str, ptr noundef nonnull @tj3JPEGBufSize.FUNCTION_NAME, ptr noundef nonnull @.str.1) #26
  br label %37

11:                                               ; preds = %3
  %12 = icmp eq i32 %2, -1
  %spec.store.select = select i1 %12, i32 0, i32 %2
  %13 = zext nneg i32 %spec.store.select to i64
  %14 = getelementptr inbounds [7 x i32], ptr @tjMCUWidth, i64 0, i64 %13
  %15 = load i32, ptr %14, align 4
  %16 = getelementptr inbounds [7 x i32], ptr @tjMCUHeight, i64 0, i64 %13
  %17 = load i32, ptr %16, align 4
  %18 = icmp eq i32 %spec.store.select, 3
  br i1 %18, label %23, label %19

19:                                               ; preds = %11
  %20 = mul nsw i32 %17, %15
  %21 = sdiv i32 256, %20
  %narrow = add nsw i32 %21, 2
  %22 = sext i32 %narrow to i64
  br label %23

23:                                               ; preds = %11, %19
  %24 = phi i64 [ %22, %19 ], [ 2, %11 ]
  %25 = add nsw i32 %0, -1
  %26 = add i32 %25, %15
  %27 = sub i32 0, %15
  %28 = and i32 %26, %27
  %29 = add nsw i32 %1, -1
  %30 = add i32 %29, %17
  %31 = sub i32 0, %17
  %32 = and i32 %30, %31
  %33 = mul nsw i32 %32, %28
  %34 = sext i32 %33 to i64
  %35 = mul nsw i64 %24, %34
  %36 = add nsw i64 %35, 2048
  br label %37

37:                                               ; preds = %23, %8
  %.0 = phi i64 [ 0, %8 ], [ %36, %23 ]
  ret i64 %.0
}